target datalayout = "e-m:e-p270:32:32-p271:32:32-p272:64:64-i64:64-i128:128-f80:128-n8:16:32:64-S128"
target triple = "x86_64-pc-linux-gnu"

%struct.RBignum = type { %struct.RBasic, %union.anon }
%struct.RBasic = type { i64, i64 }
%union.anon = type { %struct.anon, [8 x i8] }
%struct.anon = type { i64, ptr }

@rb_cInteger = external global i64, align 8
@ruby_current_ec = external thread_local global ptr, align 8

; Function Attrs: inlinehint nounwind sspstrong memory(argmem: readwrite, inaccessiblemem: readwrite) uwtable
define internal void @rbimpl_fl_unset_raw_raw(ptr noundef %0, i64 noundef %1) #9 {
  %3 = alloca ptr, align 8
  %4 = alloca i64, align 8
  store ptr %0, ptr %3, align 8, !tbaa !262
  store i64 %1, ptr %4, align 8, !tbaa !7
  %5 = load i64, ptr %4, align 8, !tbaa !7
  %6 = xor i64 %5, -1
  %7 = load ptr, ptr %3, align 8, !tbaa !262
  %8 = getelementptr inbounds nuw %struct.RBasic, ptr %7, i32 0, i32 0
  %9 = load i64, ptr %8, align 8, !tbaa !17
  %10 = and i64 %9, %6
  store i64 %10, ptr %8, align 8, !tbaa !17
  ret void
}

; Function Attrs: inlinehint nounwind sspstrong memory(argmem: readwrite, inaccessiblemem: readwrite) uwtable
define internal void @rbimpl_fl_set_raw_raw(ptr noundef %0, i64 noundef %1) #9 {
  %3 = alloca ptr, align 8
  %4 = alloca i64, align 8
  store ptr %0, ptr %3, align 8, !tbaa !262
  store i64 %1, ptr %4, align 8, !tbaa !7
  %5 = load i64, ptr %4, align 8, !tbaa !7
  %6 = load ptr, ptr %3, align 8, !tbaa !262
  %7 = getelementptr inbounds nuw %struct.RBasic, ptr %6, i32 0, i32 0
  %8 = load i64, ptr %7, align 8, !tbaa !17
  %9 = or i64 %8, %5
  store i64 %9, ptr %7, align 8, !tbaa !17
  ret void
}

; Function Attrs: inlinehint nounwind sspstrong uwtable
define internal void @RB_FL_UNSET_RAW(i64 noundef %0, i64 noundef %1) #2 {
  %3 = alloca i64, align 8
  %4 = alloca i64, align 8
  store i64 %0, ptr %3, align 8, !tbaa !7
  store i64 %1, ptr %4, align 8, !tbaa !7
  %5 = load i64, ptr %3, align 8, !tbaa !7
  %6 = inttoptr i64 %5 to ptr
  %7 = load i64, ptr %4, align 8, !tbaa !7
  call void @rbimpl_fl_unset_raw_raw(ptr noundef %6, i64 noundef %7) #28
  ret void
}

; Function Attrs: inlinehint nounwind sspstrong willreturn memory(read) uwtable
define internal i64 @RB_FL_TEST_RAW(i64 noundef %0, i64 noundef %1) #8 {
  %3 = alloca i64, align 8
  %4 = alloca i64, align 8
  store i64 %0, ptr %3, align 8, !tbaa !7
  store i64 %1, ptr %4, align 8, !tbaa !7
  %5 = load i64, ptr %3, align 8, !tbaa !7
  %6 = inttoptr i64 %5 to ptr
  %7 = getelementptr inbounds nuw %struct.RBasic, ptr %6, i32 0, i32 0
  %8 = load i64, ptr %7, align 8, !tbaa !17
  %9 = load i64, ptr %4, align 8, !tbaa !7
  %10 = and i64 %8, %9
  ret i64 %10
}

; Function Attrs: inlinehint nounwind sspstrong uwtable
define internal void @RB_FL_SET_RAW(i64 noundef %0, i64 noundef %1) #2 {
  %3 = alloca i64, align 8
  %4 = alloca i64, align 8
  store i64 %0, ptr %3, align 8, !tbaa !7
  store i64 %1, ptr %4, align 8, !tbaa !7
  %5 = load i64, ptr %3, align 8, !tbaa !7
  %6 = inttoptr i64 %5 to ptr
  %7 = load i64, ptr %4, align 8, !tbaa !7
  call void @rbimpl_fl_set_raw_raw(ptr noundef %6, i64 noundef %7) #28
  ret void
}

; Function Attrs: inlinehint nounwind sspstrong uwtable
define internal void @BIGNUM_SET_SIGN(i64 noundef %0, i1 noundef zeroext %1) #2 {
  %3 = alloca i64, align 8
  %4 = alloca i8, align 1
  store i64 %0, ptr %3, align 8, !tbaa !7
  %5 = zext i1 %1 to i8
  store i8 %5, ptr %4, align 1, !tbaa !75
  %6 = load i8, ptr %4, align 1, !tbaa !75, !range !70, !noundef !71
  %7 = trunc i8 %6 to i1
  br i1 %7, label %8, label %10

8:                                                ; preds = %2
  %9 = load i64, ptr %3, align 8, !tbaa !7
  call void @RB_FL_SET_RAW(i64 noundef %9, i64 noundef 8192)
  br label %12

10:                                               ; preds = %2
  %11 = load i64, ptr %3, align 8, !tbaa !7
  call void @RB_FL_UNSET_RAW(i64 noundef %11, i64 noundef 8192)
  br label %12

12:                                               ; preds = %10, %8
  ret void
}

; Function Attrs: inlinehint nounwind sspstrong uwtable
define internal ptr @rb_current_execution_context(i1 noundef zeroext %0) #2 {
  %2 = alloca i8, align 1
  %3 = alloca ptr, align 8
  %4 = zext i1 %0 to i8
  store i8 %4, ptr %2, align 1, !tbaa !75
  call void @llvm.lifetime.start.p0(i64 8, ptr %3) #24
  %5 = call align 8 ptr @llvm.threadlocal.address.p0(ptr align 8 @ruby_current_ec)
  %6 = load ptr, ptr %5, align 8, !tbaa !264
  store ptr %6, ptr %3, align 8, !tbaa !264
  %7 = load ptr, ptr %3, align 8, !tbaa !264
  call void @llvm.lifetime.end.p0(i64 8, ptr %3) #24
  ret ptr %7
}

; Function Attrs: inlinehint nounwind sspstrong uwtable
define internal zeroext i1 @BIGNUM_EMBED_P(i64 noundef %0) #2 {
  %2 = alloca i64, align 8
  store i64 %0, ptr %2, align 8, !tbaa !7
  %3 = load i64, ptr %2, align 8, !tbaa !7
  %4 = call i64 @RB_FL_TEST_RAW(i64 noundef %3, i64 noundef 16384) #26
  %5 = icmp ne i64 %4, 0
  ret i1 %5
}

; Function Attrs: inlinehint nounwind sspstrong uwtable
define internal ptr @BIGNUM_DIGITS(i64 noundef %0) #2 {
  %2 = alloca ptr, align 8
  %3 = alloca i64, align 8
  store i64 %0, ptr %3, align 8, !tbaa !7
  %4 = load i64, ptr %3, align 8, !tbaa !7
  %5 = call zeroext i1 @BIGNUM_EMBED_P(i64 noundef %4)
  br i1 %5, label %6, label %11

6:                                                ; preds = %1
  %7 = load i64, ptr %3, align 8, !tbaa !7
  %8 = inttoptr i64 %7 to ptr
  %9 = getelementptr inbounds nuw %struct.RBignum, ptr %8, i32 0, i32 1
  %10 = getelementptr inbounds [6 x i32], ptr %9, i64 0, i64 0
  store ptr %10, ptr %2, align 8
  br label %17

11:                                               ; preds = %1
  %12 = load i64, ptr %3, align 8, !tbaa !7
  %13 = inttoptr i64 %12 to ptr
  %14 = getelementptr inbounds nuw %struct.RBignum, ptr %13, i32 0, i32 1
  %15 = getelementptr inbounds nuw %struct.anon, ptr %14, i32 0, i32 1
  %16 = load ptr, ptr %15, align 8, !tbaa !16
  store ptr %16, ptr %2, align 8
  br label %17

17:                                               ; preds = %11, %6
  %18 = load ptr, ptr %2, align 8
  ret ptr %18
}

; Function Attrs: nounwind sspstrong uwtable
define internal i64 @bignew_1(i64 noundef %0, i64 noundef %1, i32 noundef %2) #0 {
  %4 = alloca i64, align 8
  %5 = alloca i64, align 8
  %6 = alloca i32, align 4
  %7 = alloca ptr, align 8
  %8 = alloca i64, align 8
  %9 = alloca [6 x i64], align 16
  %10 = alloca i64, align 8
  %11 = alloca i64, align 8
  store i64 %0, ptr %4, align 8, !tbaa !7
  store i64 %1, ptr %5, align 8, !tbaa !7
  store i32 %2, ptr %6, align 4, !tbaa !19
  call void @llvm.lifetime.start.p0(i64 8, ptr %7) #24
  %12 = call ptr @rb_current_execution_context(i1 noundef zeroext true)
  %13 = load i64, ptr %4, align 8, !tbaa !7
  %14 = call i64 @rb_wb_protected_newobj_of(ptr noundef %12, i64 noundef %13, i64 noundef 10, i64 noundef 40)
  %15 = inttoptr i64 %14 to ptr
  store ptr %15, ptr %7, align 8, !tbaa !21
  call void @llvm.lifetime.start.p0(i64 8, ptr %8) #24
  %16 = load ptr, ptr %7, align 8, !tbaa !21
  %17 = ptrtoint ptr %16 to i64
  store i64 %17, ptr %8, align 8, !tbaa !7
  %18 = load i64, ptr %8, align 8, !tbaa !7
  %19 = load i32, ptr %6, align 4, !tbaa !19
  %20 = icmp ne i32 %19, 0
  call void @BIGNUM_SET_SIGN(i64 noundef %18, i1 noundef zeroext %20)
  %21 = load i64, ptr %5, align 8, !tbaa !7
  %22 = icmp ule i64 %21, 6
  br i1 %22, label %23, label %59

23:                                               ; preds = %3
  %24 = load i64, ptr %8, align 8, !tbaa !7
  call void @RB_FL_SET_RAW(i64 noundef %24, i64 noundef 16384)
  %25 = load i64, ptr %8, align 8, !tbaa !7
  %26 = call zeroext i1 @BIGNUM_EMBED_P(i64 noundef %25)
  br i1 %26, label %27, label %39

27:                                               ; preds = %23
  %28 = load i64, ptr %8, align 8, !tbaa !7
  %29 = inttoptr i64 %28 to ptr
  %30 = getelementptr inbounds nuw %struct.RBasic, ptr %29, i32 0, i32 0
  %31 = load i64, ptr %30, align 8, !tbaa !17
  %32 = and i64 %31, -229377
  %33 = load i64, ptr %5, align 8, !tbaa !7
  %34 = shl i64 %33, 15
  %35 = or i64 %32, %34
  %36 = load i64, ptr %8, align 8, !tbaa !7
  %37 = inttoptr i64 %36 to ptr
  %38 = getelementptr inbounds nuw %struct.RBasic, ptr %37, i32 0, i32 0
  store i64 %35, ptr %38, align 8, !tbaa !17
  br label %45

39:                                               ; preds = %23
  %40 = load i64, ptr %5, align 8, !tbaa !7
  %41 = load i64, ptr %8, align 8, !tbaa !7
  %42 = inttoptr i64 %41 to ptr
  %43 = getelementptr inbounds nuw %struct.RBignum, ptr %42, i32 0, i32 1
  %44 = getelementptr inbounds nuw %struct.anon, ptr %43, i32 0, i32 0
  store i64 %40, ptr %44, align 8, !tbaa !16
  br label %45

45:                                               ; preds = %39, %27
  call void @llvm.lifetime.start.p0(i64 48, ptr %9) #24
  call void @llvm.lifetime.start.p0(i64 8, ptr %10) #24
  %46 = getelementptr [6 x i64], ptr %9, i64 0, i64 0
  store volatile i64 1296236545, ptr %46, align 16, !tbaa !7
  %47 = load ptr, ptr %7, align 8, !tbaa !21
  %48 = getelementptr inbounds nuw %struct.RBignum, ptr %47, i32 0, i32 1
  %49 = getelementptr inbounds [6 x i32], ptr %48, i64 0, i64 0
  %50 = ptrtoint ptr %49 to i64
  %51 = getelementptr [6 x i64], ptr %9, i64 0, i64 1
  store volatile i64 %50, ptr %51, align 8, !tbaa !7
  %52 = getelementptr [6 x i64], ptr %9, i64 0, i64 2
  store volatile i64 24, ptr %52, align 16, !tbaa !7
  %53 = getelementptr [6 x i64], ptr %9, i64 0, i64 3
  store volatile i64 0, ptr %53, align 8, !tbaa !7
  %54 = getelementptr [6 x i64], ptr %9, i64 0, i64 4
  store volatile i64 0, ptr %54, align 16, !tbaa !7
  %55 = getelementptr [6 x i64], ptr %9, i64 0, i64 5
  store volatile i64 0, ptr %55, align 8, !tbaa !7
  %56 = getelementptr [6 x i64], ptr %9, i64 0, i64 0
  %57 = call i64 asm sideeffect "rolq $$3,  %rdi ; rolq $$13, %rdi\0A\09rolq $$61, %rdi ; rolq $$51, %rdi\0A\09xchgq %rbx,%rbx", "={dx},{ax},0,~{cc},~{memory},~{dirflag},~{fpsr},~{flags}"(ptr %56, i64 0) #24, !srcloc !23
  store volatile i64 %57, ptr %10, align 8, !tbaa !7
  %58 = load volatile i64, ptr %10, align 8, !tbaa !7
  store i64 %58, ptr %11, align 8, !tbaa !7
  call void @llvm.lifetime.end.p0(i64 8, ptr %10) #24
  call void @llvm.lifetime.end.p0(i64 48, ptr %9) #24
  br label %69

59:                                               ; preds = %3
  %60 = load i64, ptr %5, align 8, !tbaa !7
  %61 = call noalias nonnull ptr @ruby_xmalloc2(i64 noundef %60, i64 noundef 4) #25
  %62 = load ptr, ptr %7, align 8, !tbaa !21
  %63 = getelementptr inbounds nuw %struct.RBignum, ptr %62, i32 0, i32 1
  %64 = getelementptr inbounds nuw %struct.anon, ptr %63, i32 0, i32 1
  store ptr %61, ptr %64, align 8, !tbaa !16
  %65 = load i64, ptr %5, align 8, !tbaa !7
  %66 = load ptr, ptr %7, align 8, !tbaa !21
  %67 = getelementptr inbounds nuw %struct.RBignum, ptr %66, i32 0, i32 1
  %68 = getelementptr inbounds nuw %struct.anon, ptr %67, i32 0, i32 0
  store i64 %65, ptr %68, align 8, !tbaa !16
  br label %69

69:                                               ; preds = %59, %45
  %70 = load i64, ptr %8, align 8, !tbaa !7
  call void @rb_obj_freeze_inline(i64 noundef %70)
  %71 = load i64, ptr %8, align 8, !tbaa !7
  call void @llvm.lifetime.end.p0(i64 8, ptr %8) #24
  call void @llvm.lifetime.end.p0(i64 8, ptr %7) #24
  ret i64 %71
}

; Function Attrs: nounwind sspstrong uwtable
define dso_local i64 @rb_uint2big(i64 noundef %0) #0 {
  %2 = alloca i64, align 8
  %3 = alloca i64, align 8
  %4 = alloca i64, align 8
  %5 = alloca ptr, align 8
  store i64 %0, ptr %2, align 8, !tbaa !7
  call void @llvm.lifetime.start.p0(i64 8, ptr %3) #24
  call void @llvm.lifetime.start.p0(i64 8, ptr %4) #24
  %6 = load i64, ptr @rb_cInteger, align 8, !tbaa !7
  %7 = call i64 @bignew_1(i64 noundef %6, i64 noundef 2, i32 noundef 1)
  store i64 %7, ptr %4, align 8, !tbaa !7
  call void @llvm.lifetime.start.p0(i64 8, ptr %5) #24
  %8 = load i64, ptr %4, align 8, !tbaa !7
  %9 = call ptr @BIGNUM_DIGITS(i64 noundef %8)
  store ptr %9, ptr %5, align 8, !tbaa !24
  store i64 0, ptr %3, align 8, !tbaa !7
  br label %10

10:                                               ; preds = %22, %1
  %11 = load i64, ptr %3, align 8, !tbaa !7
  %12 = icmp slt i64 %11, 2
  br i1 %12, label %13, label %25

13:                                               ; preds = %10
  %14 = load i64, ptr %2, align 8, !tbaa !7
  %15 = and i64 %14, 4294967295
  %16 = trunc i64 %15 to i32
  %17 = load ptr, ptr %5, align 8, !tbaa !24
  %18 = load i64, ptr %3, align 8, !tbaa !7
  %19 = getelementptr i32, ptr %17, i64 %18
  store i32 %16, ptr %19, align 4, !tbaa !19
  %20 = load i64, ptr %2, align 8, !tbaa !7
  %21 = lshr i64 %20, 32
  store i64 %21, ptr %2, align 8, !tbaa !7
  br label %22

22:                                               ; preds = %13
  %23 = load i64, ptr %3, align 8, !tbaa !7
  %24 = add i64 %23, 1
  store i64 %24, ptr %3, align 8, !tbaa !7
  br label %10, !llvm.loop !73

25:                                               ; preds = %10
  store i64 2, ptr %3, align 8, !tbaa !7
  br label %26

26:                                               ; preds = %39, %25
  %27 = load i64, ptr %3, align 8, !tbaa !7
  %28 = add i64 %27, -1
  store i64 %28, ptr %3, align 8, !tbaa !7
  %29 = icmp ne i64 %28, 0
  br i1 %29, label %30, label %37

30:                                               ; preds = %26
  %31 = load ptr, ptr %5, align 8, !tbaa !24
  %32 = load i64, ptr %3, align 8, !tbaa !7
  %33 = getelementptr i32, ptr %31, i64 %32
  %34 = load i32, ptr %33, align 4, !tbaa !19
  %35 = icmp ne i32 %34, 0
  %36 = xor i1 %35, true
  br label %37

37:                                               ; preds = %30, %26
  %38 = phi i1 [ false, %26 ], [ %36, %30 ]
  br i1 %38, label %39, label %40

39:                                               ; preds = %37
  br label %26, !llvm.loop !74

40:                                               ; preds = %37
  %41 = load i64, ptr %4, align 8, !tbaa !7
  %42 = call zeroext i1 @BIGNUM_EMBED_P(i64 noundef %41)
  br i1 %42, label %43, label %56

43:                                               ; preds = %40
  %44 = load i64, ptr %4, align 8, !tbaa !7
  %45 = inttoptr i64 %44 to ptr
  %46 = getelementptr inbounds nuw %struct.RBasic, ptr %45, i32 0, i32 0
  %47 = load i64, ptr %46, align 8, !tbaa !17
  %48 = and i64 %47, -229377
  %49 = load i64, ptr %3, align 8, !tbaa !7
  %50 = add i64 %49, 1
  %51 = shl i64 %50, 15
  %52 = or i64 %48, %51
  %53 = load i64, ptr %4, align 8, !tbaa !7
  %54 = inttoptr i64 %53 to ptr
  %55 = getelementptr inbounds nuw %struct.RBasic, ptr %54, i32 0, i32 0
  store i64 %52, ptr %55, align 8, !tbaa !17
  br label %63

56:                                               ; preds = %40
  %57 = load i64, ptr %3, align 8, !tbaa !7
  %58 = add i64 %57, 1
  %59 = load i64, ptr %4, align 8, !tbaa !7
  %60 = inttoptr i64 %59 to ptr
  %61 = getelementptr inbounds nuw %struct.RBignum, ptr %60, i32 0, i32 1
  %62 = getelementptr inbounds nuw %struct.anon, ptr %61, i32 0, i32 0
  store i64 %58, ptr %62, align 8, !tbaa !16
  br label %63

63:                                               ; preds = %56, %43
  %64 = load i64, ptr %4, align 8, !tbaa !7
  call void @llvm.lifetime.end.p0(i64 8, ptr %5) #24
  call void @llvm.lifetime.end.p0(i64 8, ptr %4) #24
  call void @llvm.lifetime.end.p0(i64 8, ptr %3) #24
  ret i64 %64
}