; Function Attrs: nounwind sspstrong uwtable
define dso_local i64 @rb_uint2big(i64 noundef %0) local_unnamed_addr #0 {
  %2 = alloca [6 x i64], align 16
  %3 = alloca i64, align 8
  %4 = load i64, ptr @rb_cInteger, align 8, !tbaa !7
  %5 = tail call align 8 ptr @llvm.threadlocal.address.p0(ptr align 8 @ruby_current_ec)
  %6 = load ptr, ptr %5, align 8, !tbaa !14
  %7 = tail call i64 @rb_wb_protected_newobj_of(ptr noundef %6, i64 noundef %4, i64 noundef 10, i64 noundef 40) #27
  %8 = inttoptr i64 %7 to ptr
  %9 = load i64, ptr %8, align 8, !tbaa !11
  %.sink.i.i = and i64 %9, -253953
  %10 = or disjoint i64 %.sink.i.i, 90112
  store i64 %10, ptr %8, align 8, !tbaa !11
  call void @llvm.lifetime.start.p0(i64 48, ptr nonnull %2) #27
  call void @llvm.lifetime.start.p0(i64 8, ptr nonnull %3)
  store volatile i64 1296236545, ptr %2, align 16, !tbaa !7
  %11 = getelementptr inbounds nuw i8, ptr %8, i64 16
  %12 = ptrtoint ptr %11 to i64
  %13 = getelementptr inbounds nuw i8, ptr %2, i64 8
  store volatile i64 %12, ptr %13, align 8, !tbaa !7
  %14 = getelementptr inbounds nuw i8, ptr %2, i64 16
  store volatile i64 24, ptr %14, align 16, !tbaa !7
  %15 = getelementptr inbounds nuw i8, ptr %2, i64 24
  store volatile i64 0, ptr %15, align 8, !tbaa !7
  %16 = getelementptr inbounds nuw i8, ptr %2, i64 32
  store volatile i64 0, ptr %16, align 16, !tbaa !7
  %17 = getelementptr inbounds nuw i8, ptr %2, i64 40
  store volatile i64 0, ptr %17, align 8, !tbaa !7
  %18 = call i64 asm sideeffect "rolq $$3,  %rdi ; rolq $$13, %rdi\0A\09rolq $$61, %rdi ; rolq $$51, %rdi\0A\09xchgq %rbx,%rbx", "={dx},{ax},0,~{cc},~{memory},~{dirflag},~{fpsr},~{flags}"(ptr nonnull %2, i64 0) #27, !srcloc !17
  store volatile i64 %18, ptr %3, align 8, !tbaa !7
  %.0..0..0..0..0..0..i = load volatile i64, ptr %3, align 8, !tbaa !7
  call void @llvm.lifetime.end.p0(i64 8, ptr nonnull %3)
  call void @llvm.lifetime.end.p0(i64 48, ptr nonnull %2) #27
  call void @rb_obj_freeze_inline(i64 noundef %7) #27
  %19 = load i64, ptr %8, align 8, !tbaa !11
  %20 = and i64 %19, 16384
  %.not.i = icmp eq i64 %20, 0
  br i1 %.not.i, label %21, label %BIGNUM_DIGITS.exit

21:                                               ; preds = %1
  %22 = getelementptr inbounds nuw i8, ptr %8, i64 24
  %23 = load ptr, ptr %22, align 8, !tbaa !13
  br label %BIGNUM_DIGITS.exit

BIGNUM_DIGITS.exit:                               ; preds = %1, %21
  %.0.i = phi ptr [ %23, %21 ], [ %11, %1 ]
  br label %26

.preheader:                                       ; preds = %26
  %24 = getelementptr i8, ptr %.0.i, i64 4
  %25 = load i32, ptr %24, align 4, !tbaa !18
  %.not18 = icmp eq i32 %25, 0
  %.us-phi = select i1 %.not18, i64 1, i64 2
  br i1 %.not.i, label %35, label %31

26:                                               ; preds = %BIGNUM_DIGITS.exit, %26
  %.021 = phi i64 [ %0, %BIGNUM_DIGITS.exit ], [ %30, %26 ]
  %27 = phi i1 [ true, %BIGNUM_DIGITS.exit ], [ false, %26 ]
  %.01620 = phi i64 [ 0, %BIGNUM_DIGITS.exit ], [ 1, %26 ]
  %28 = trunc i64 %.021 to i32
  %29 = getelementptr i32, ptr %.0.i, i64 %.01620
  store i32 %28, ptr %29, align 4, !tbaa !18
  %30 = lshr i64 %.021, 32
  br i1 %27, label %26, label %.preheader, !llvm.loop !75

31:                                               ; preds = %.preheader
  %32 = and i64 %19, -229377
  %33 = shl nuw nsw i64 %.us-phi, 15
  %34 = or disjoint i64 %33, %32
  store i64 %34, ptr %8, align 8, !tbaa !11
  br label %36

35:                                               ; preds = %.preheader
  store i64 %.us-phi, ptr %11, align 8, !tbaa !13
  br label %36

36:                                               ; preds = %35, %31
  ret i64 %7
}